target datalayout = "e-m:e-p270:32:32-p271:32:32-p272:64:64-i64:64-i128:128-f80:128-n8:16:32:64-S128"
target triple = "x86_64-pc-linux-gnu"

%struct.jpeg_compress_struct = type { ptr, ptr, ptr, ptr, i32, i32, ptr, i32, i32, i32, i32, double, i32, i32, i32, ptr, [4 x ptr], [4 x ptr], [4 x ptr], [16 x i8], [16 x i8], [16 x i8], i32, ptr, i32, i32, i32, i32, i32, i32, i32, i32, i32, i8, i8, i8, i16, i16, i32, i32, i32, i32, i32, i32, i32, [4 x ptr], i32, i32, i32, [10 x i32], i32, i32, i32, i32, ptr, ptr, ptr, ptr, ptr, ptr, ptr, ptr, ptr, ptr, i32 }

@simd_support = internal thread_local global i32 -1, align 4

; Function Attrs: nounwind uwtable
define void @jsimd_rgb_gray_convert(ptr noundef %0, ptr noundef %1, ptr noundef %2, i32 noundef %3, i32 noundef %4) #0 {
  %6 = alloca ptr, align 8
  %7 = alloca ptr, align 8
  %8 = alloca ptr, align 8
  %9 = alloca i32, align 4
  %10 = alloca i32, align 4
  %11 = alloca ptr, align 8
  %12 = alloca ptr, align 8
  store ptr %0, ptr %6, align 8, !tbaa !7
  store ptr %1, ptr %7, align 8, !tbaa !10
  store ptr %2, ptr %8, align 8, !tbaa !12
  store i32 %3, ptr %9, align 4, !tbaa !3
  store i32 %4, ptr %10, align 4, !tbaa !3
  call void @llvm.lifetime.start.p0(i64 8, ptr %11) #9
  call void @llvm.lifetime.start.p0(i64 8, ptr %12) #9
  %13 = call align 4 ptr @llvm.threadlocal.address.p0(ptr align 4 @simd_support)
  %14 = load i32, ptr %13, align 4, !tbaa !3
  %15 = icmp eq i32 %14, -1
  br i1 %15, label %16, label %17

16:                                               ; preds = %5
  call void @init_simd()
  br label %17

17:                                               ; preds = %16, %5
  %18 = load ptr, ptr %6, align 8, !tbaa !7
  %19 = getelementptr inbounds nuw %struct.jpeg_compress_struct, ptr %18, i32 0, i32 10
  %20 = load i32, ptr %19, align 4, !tbaa !14
  switch i32 %20, label %27 [
    i32 6, label %21
    i32 7, label %22
    i32 12, label %22
    i32 8, label %23
    i32 9, label %24
    i32 13, label %24
    i32 10, label %25
    i32 14, label %25
    i32 11, label %26
    i32 15, label %26
  ]

21:                                               ; preds = %17
  store ptr @jsimd_extrgb_gray_convert_avx2, ptr %11, align 8, !tbaa !31
  store ptr @jsimd_extrgb_gray_convert_sse2, ptr %12, align 8, !tbaa !31
  br label %28

22:                                               ; preds = %17, %17
  store ptr @jsimd_extrgbx_gray_convert_avx2, ptr %11, align 8, !tbaa !31
  store ptr @jsimd_extrgbx_gray_convert_sse2, ptr %12, align 8, !tbaa !31
  br label %28

23:                                               ; preds = %17
  store ptr @jsimd_extbgr_gray_convert_avx2, ptr %11, align 8, !tbaa !31
  store ptr @jsimd_extbgr_gray_convert_sse2, ptr %12, align 8, !tbaa !31
  br label %28

24:                                               ; preds = %17, %17
  store ptr @jsimd_extbgrx_gray_convert_avx2, ptr %11, align 8, !tbaa !31
  store ptr @jsimd_extbgrx_gray_convert_sse2, ptr %12, align 8, !tbaa !31
  br label %28

25:                                               ; preds = %17, %17
  store ptr @jsimd_extxbgr_gray_convert_avx2, ptr %11, align 8, !tbaa !31
  store ptr @jsimd_extxbgr_gray_convert_sse2, ptr %12, align 8, !tbaa !31
  br label %28

26:                                               ; preds = %17, %17
  store ptr @jsimd_extxrgb_gray_convert_avx2, ptr %11, align 8, !tbaa !31
  store ptr @jsimd_extxrgb_gray_convert_sse2, ptr %12, align 8, !tbaa !31
  br label %28

27:                                               ; preds = %17
  store ptr @jsimd_rgb_gray_convert_avx2, ptr %11, align 8, !tbaa !31
  store ptr @jsimd_rgb_gray_convert_sse2, ptr %12, align 8, !tbaa !31
  br label %28

28:                                               ; preds = %27, %26, %25, %24, %23, %22, %21
  %29 = call align 4 ptr @llvm.threadlocal.address.p0(ptr align 4 @simd_support)
  %30 = load i32, ptr %29, align 4, !tbaa !3
  %31 = and i32 %30, 128
  %32 = icmp ne i32 %31, 0
  br i1 %32, label %33, label %42

33:                                               ; preds = %28
  %34 = load ptr, ptr %11, align 8, !tbaa !31
  %35 = load ptr, ptr %6, align 8, !tbaa !7
  %36 = getelementptr inbounds nuw %struct.jpeg_compress_struct, ptr %35, i32 0, i32 7
  %37 = load i32, ptr %36, align 8, !tbaa !32
  %38 = load ptr, ptr %7, align 8, !tbaa !10
  %39 = load ptr, ptr %8, align 8, !tbaa !12
  %40 = load i32, ptr %9, align 4, !tbaa !3
  %41 = load i32, ptr %10, align 4, !tbaa !3
  call void %34(i32 noundef %37, ptr noundef %38, ptr noundef %39, i32 noundef %40, i32 noundef %41)
  br label %51

42:                                               ; preds = %28
  %43 = load ptr, ptr %12, align 8, !tbaa !31
  %44 = load ptr, ptr %6, align 8, !tbaa !7
  %45 = getelementptr inbounds nuw %struct.jpeg_compress_struct, ptr %44, i32 0, i32 7
  %46 = load i32, ptr %45, align 8, !tbaa !32
  %47 = load ptr, ptr %7, align 8, !tbaa !10
  %48 = load ptr, ptr %8, align 8, !tbaa !12
  %49 = load i32, ptr %9, align 4, !tbaa !3
  %50 = load i32, ptr %10, align 4, !tbaa !3
  call void %43(i32 noundef %46, ptr noundef %47, ptr noundef %48, i32 noundef %49, i32 noundef %50)
  br label %51

51:                                               ; preds = %42, %33
  call void @llvm.lifetime.end.p0(i64 8, ptr %12) #9
  call void @llvm.lifetime.end.p0(i64 8, ptr %11) #9
  ret void
}