; Function Attrs: nounwind uwtable
define void @jsimd_rgb_gray_convert(ptr noundef readonly captures(none) %0, ptr noundef %1, ptr noundef %2, i32 noundef %3, i32 noundef %4) local_unnamed_addr #0 {
  %6 = tail call align 4 ptr @llvm.threadlocal.address.p0(ptr align 4 @simd_support)
  %7 = load i32, ptr %6, align 4, !tbaa !3
  %8 = icmp eq i32 %7, -1
  br i1 %8, label %9, label %10

9:                                                ; preds = %5
  tail call fastcc void @init_simd()
  br label %10

10:                                               ; preds = %9, %5
  %11 = getelementptr inbounds nuw i8, ptr %0, i64 60
  %12 = load i32, ptr %11, align 4, !tbaa !8
  %switch.tableidx = add i32 %12, -6
  %13 = icmp ult i32 %switch.tableidx, 10
  br i1 %13, label %switch.lookup, label %16

switch.lookup:                                    ; preds = %10
  %14 = zext nneg i32 %switch.tableidx to i64
  %switch.gep = getelementptr inbounds nuw [10 x ptr], ptr @switch.table.jsimd_rgb_gray_convert, i64 0, i64 %14
  %switch.load = load ptr, ptr %switch.gep, align 8
  %15 = zext nneg i32 %switch.tableidx to i64
  %switch.gep13 = getelementptr inbounds nuw [10 x ptr], ptr @switch.table.jsimd_rgb_gray_convert.2, i64 0, i64 %15
  %switch.load14 = load ptr, ptr %switch.gep13, align 8
  br label %16

16:                                               ; preds = %10, %switch.lookup
  %.012 = phi ptr [ %switch.load, %switch.lookup ], [ @jsimd_rgb_gray_convert_avx2, %10 ]
  %.0 = phi ptr [ %switch.load14, %switch.lookup ], [ @jsimd_rgb_gray_convert_sse2, %10 ]
  %17 = load i32, ptr %6, align 4, !tbaa !3
  %18 = and i32 %17, 128
  %.not = icmp eq i32 %18, 0
  %19 = getelementptr inbounds nuw i8, ptr %0, i64 48
  %20 = load i32, ptr %19, align 8, !tbaa !26
  %.0..012 = select i1 %.not, ptr %.0, ptr %.012
  tail call void %.0..012(i32 noundef %20, ptr noundef %1, ptr noundef %2, i32 noundef %3, i32 noundef %4) #8
  ret void
}